; Function Attrs: mustprogress uwtable
define hidden void @_ZN6Assimp3ASE6Parser22ParseLV4MeshLongTripleEPjRj(ptr noundef nonnull align 8 captures(none) dereferenceable(188) %0, ptr noundef writeonly captures(none) %1, ptr noundef nonnull writeonly align 4 captures(none) dereferenceable(4) %2) local_unnamed_addr #1 align 2 {
  tail call void @_ZN6Assimp3ASE6Parser16ParseLV4MeshLongERj(ptr noundef nonnull align 8 dereferenceable(188) %0, ptr noundef nonnull align 4 dereferenceable(4) %2)
  br label %4

4:                                                ; preds = %4, %3
  %indvars.iv.i = phi i64 [ 0, %3 ], [ %indvars.iv.next.i, %4 ]
  %5 = getelementptr inbounds nuw i32, ptr %1, i64 %indvars.iv.i
  tail call void @_ZN6Assimp3ASE6Parser16ParseLV4MeshLongERj(ptr noundef nonnull align 8 dereferenceable(188) %0, ptr noundef nonnull align 4 dereferenceable(4) %5)
  %indvars.iv.next.i = add nuw nsw i64 %indvars.iv.i, 1
  %exitcond.not.i = icmp eq i64 %indvars.iv.next.i, 3
  br i1 %exitcond.not.i, label %_ZN6Assimp3ASE6Parser22ParseLV4MeshLongTripleEPj.exit, label %4, !llvm.loop !75

_ZN6Assimp3ASE6Parser22ParseLV4MeshLongTripleEPj.exit: ; preds = %4
  ret void
}